; ModuleID = '20/201.c'
source_filename = "20/201.c"
target datalayout = "e-m:e-p270:32:32-p271:32:32-p272:64:64-i64:64-f80:128-n8:16:32:64-S128"
target triple = "x86_64-pc-linux-gnu"

@.str = private unnamed_addr constant [5 x i8] c"%s%s\00", align 1
@.str.1 = private unnamed_addr constant [4 x i8] c"%s\0A\00", align 1

; Function Attrs: noinline nounwind uwtable
define dso_local void @main() #0 {
  %1 = alloca [14 x i8], align 1
  %2 = alloca [4 x i8], align 1
  %3 = alloca [14 x i8], align 1
  %4 = alloca [14 x i8], align 1
  %5 = alloca i32, align 4
  %6 = alloca i32, align 4
  %7 = alloca i32, align 4
  %8 = alloca i8, align 1
  store i32 0, i32* %5, align 4
  br label %9

9:                                                ; preds = %100, %0
  %10 = getelementptr inbounds [14 x i8], [14 x i8]* %1, i64 0, i64 0
  %11 = getelementptr inbounds [4 x i8], [4 x i8]* %2, i64 0, i64 0
  %12 = call i32 (i8*, ...) @__isoc99_scanf(i8* getelementptr inbounds ([5 x i8], [5 x i8]* @.str, i64 0, i64 0), i8* %10, i8* %11)
  %13 = icmp ne i32 %12, -1
  br i1 %13, label %14, label %112

14:                                               ; preds = %9
  %15 = getelementptr inbounds [14 x i8], [14 x i8]* %1, i64 0, i64 0
  %16 = call i64 @strlen(i8* %15) #4
  %17 = trunc i64 %16 to i32
  store i32 %17, i32* %6, align 4
  store i32 0, i32* %5, align 4
  %18 = getelementptr inbounds [14 x i8], [14 x i8]* %1, i64 0, i64 0
  %19 = load i8, i8* %18, align 1
  store i8 %19, i8* %8, align 1
  br label %20

20:                                               ; preds = %45, %14
  %21 = load i32, i32* %5, align 4
  %22 = load i32, i32* %6, align 4
  %23 = icmp slt i32 %21, %22
  br i1 %23, label %24, label %48

24:                                               ; preds = %20
  %25 = load i8, i8* %8, align 1
  %26 = sext i8 %25 to i32
  %27 = load i32, i32* %5, align 4
  %28 = sext i32 %27 to i64
  %29 = getelementptr inbounds [14 x i8], [14 x i8]* %1, i64 0, i64 %28
  %30 = load i8, i8* %29, align 1
  %31 = sext i8 %30 to i32
  %32 = icmp sge i32 %26, %31
  br i1 %32, label %33, label %36

33:                                               ; preds = %24
  %34 = load i8, i8* %8, align 1
  %35 = sext i8 %34 to i32
  br label %42

36:                                               ; preds = %24
  %37 = load i32, i32* %5, align 4
  %38 = sext i32 %37 to i64
  %39 = getelementptr inbounds [14 x i8], [14 x i8]* %1, i64 0, i64 %38
  %40 = load i8, i8* %39, align 1
  %41 = sext i8 %40 to i32
  br label %42

42:                                               ; preds = %36, %33
  %43 = phi i32 [ %35, %33 ], [ %41, %36 ]
  %44 = trunc i32 %43 to i8
  store i8 %44, i8* %8, align 1
  br label %45

45:                                               ; preds = %42
  %46 = load i32, i32* %5, align 4
  %47 = add nsw i32 %46, 1
  store i32 %47, i32* %5, align 4
  br label %20

48:                                               ; preds = %20
  store i32 0, i32* %5, align 4
  br label %49

49:                                               ; preds = %64, %48
  %50 = load i32, i32* %5, align 4
  %51 = load i32, i32* %6, align 4
  %52 = icmp slt i32 %50, %51
  br i1 %52, label %53, label %67

53:                                               ; preds = %49
  %54 = load i32, i32* %5, align 4
  %55 = sext i32 %54 to i64
  %56 = getelementptr inbounds [14 x i8], [14 x i8]* %1, i64 0, i64 %55
  %57 = load i8, i8* %56, align 1
  %58 = sext i8 %57 to i32
  %59 = load i8, i8* %8, align 1
  %60 = sext i8 %59 to i32
  %61 = icmp eq i32 %58, %60
  br i1 %61, label %62, label %63

62:                                               ; preds = %53
  br label %67

63:                                               ; preds = %53
  br label %64

64:                                               ; preds = %63
  %65 = load i32, i32* %5, align 4
  %66 = add nsw i32 %65, 1
  store i32 %66, i32* %5, align 4
  br label %49

67:                                               ; preds = %62, %49
  %68 = load i32, i32* %5, align 4
  store i32 %68, i32* %7, align 4
  %69 = getelementptr inbounds [14 x i8], [14 x i8]* %3, i64 0, i64 0
  %70 = getelementptr inbounds [14 x i8], [14 x i8]* %1, i64 0, i64 0
  %71 = load i32, i32* %7, align 4
  %72 = add nsw i32 %71, 1
  %73 = sext i32 %72 to i64
  %74 = call i8* @strncpy(i8* %69, i8* %70, i64 %73) #5
  %75 = load i32, i32* %7, align 4
  %76 = add nsw i32 %75, 1
  %77 = sext i32 %76 to i64
  %78 = getelementptr inbounds [14 x i8], [14 x i8]* %3, i64 0, i64 %77
  store i8 0, i8* %78, align 1
  store i32 0, i32* %5, align 4
  br label %79

79:                                               ; preds = %97, %67
  %80 = load i32, i32* %5, align 4
  %81 = load i32, i32* %6, align 4
  %82 = load i32, i32* %7, align 4
  %83 = sub nsw i32 %81, %82
  %84 = sub nsw i32 %83, 1
  %85 = icmp slt i32 %80, %84
  br i1 %85, label %86, label %100

86:                                               ; preds = %79
  %87 = load i32, i32* %7, align 4
  %88 = add nsw i32 %87, 1
  %89 = load i32, i32* %5, align 4
  %90 = add nsw i32 %88, %89
  %91 = sext i32 %90 to i64
  %92 = getelementptr inbounds [14 x i8], [14 x i8]* %1, i64 0, i64 %91
  %93 = load i8, i8* %92, align 1
  %94 = load i32, i32* %5, align 4
  %95 = sext i32 %94 to i64
  %96 = getelementptr inbounds [14 x i8], [14 x i8]* %4, i64 0, i64 %95
  store i8 %93, i8* %96, align 1
  br label %97

97:                                               ; preds = %86
  %98 = load i32, i32* %5, align 4
  %99 = add nsw i32 %98, 1
  store i32 %99, i32* %5, align 4
  br label %79

100:                                              ; preds = %79
  %101 = load i32, i32* %5, align 4
  %102 = sext i32 %101 to i64
  %103 = getelementptr inbounds [14 x i8], [14 x i8]* %4, i64 0, i64 %102
  store i8 0, i8* %103, align 1
  %104 = getelementptr inbounds [14 x i8], [14 x i8]* %3, i64 0, i64 0
  %105 = getelementptr inbounds [4 x i8], [4 x i8]* %2, i64 0, i64 0
  %106 = call i8* @strcat(i8* %104, i8* %105) #5
  %107 = getelementptr inbounds [14 x i8], [14 x i8]* %3, i64 0, i64 0
  %108 = getelementptr inbounds [14 x i8], [14 x i8]* %4, i64 0, i64 0
  %109 = call i8* @strcat(i8* %107, i8* %108) #5
  %110 = getelementptr inbounds [14 x i8], [14 x i8]* %3, i64 0, i64 0
  %111 = call i32 (i8*, ...) @printf(i8* getelementptr inbounds ([4 x i8], [4 x i8]* @.str.1, i64 0, i64 0), i8* %110)
  br label %9

112:                                              ; preds = %9
  ret void
}

declare dso_local i32 @__isoc99_scanf(i8*, ...) #1

; Function Attrs: nounwind readonly
declare dso_local i64 @strlen(i8*) #2

; Function Attrs: nounwind
declare dso_local i8* @strncpy(i8*, i8*, i64) #3

; Function Attrs: nounwind
declare dso_local i8* @strcat(i8*, i8*) #3

declare dso_local i32 @printf(i8*, ...) #1


!llvm.module.flags = !{!0}
!llvm.ident = !{!1}

!0 = !{i32 1, !"wchar_size", i32 4}
!1 = !{!"clang version 10.0.0-4ubuntu1 "}
